target datalayout = "e-m:e-p270:32:32-p271:32:32-p272:64:64-i64:64-i128:128-f80:128-n8:16:32:64-S128"
target triple = "x86_64-pc-linux-gnu"

%"class.zmq::v2_decoder_t" = type { %"class.zmq::decoder_base_t", [8 x i8], i8, %"class.zmq::msg_t", i8, i64 }
%"class.zmq::decoder_base_t" = type { %"class.zmq::i_decoder", { i64, i64 }, ptr, i64, %"class.zmq::shared_message_memory_allocator", ptr }
%"class.zmq::i_decoder" = type { ptr }
%"class.zmq::shared_message_memory_allocator" = type { ptr, i64, i64, ptr, i64 }
%"class.zmq::msg_t" = type { %union.anon }
%union.anon = type { %struct.anon }
%struct.anon = type { ptr, [34 x i8], i8, i8, i32, %"union.zmq::msg_t::group_t" }
%"union.zmq::msg_t::group_t" = type { %struct.anon.1 }
%struct.anon.1 = type { i8, ptr }

@stderr = external global ptr, align 8
@.str = private unnamed_addr constant [12 x i8] c"%s (%s:%d)\0A\00", align 1
@.str.1 = private unnamed_addr constant [110 x i8] c"generated/home/dtcxzyw/WorkSpace/Projects/compilers/llvm-opt-benchmark/bench/libzmq/libzmq/src/v2_decoder.cpp\00", align 1
@_ZTVN3zmq9i_decoderE = linkonce_odr unnamed_addr constant { [8 x ptr] } { [8 x ptr] [ptr null, ptr @_ZTIN3zmq9i_decoderE, ptr @_ZN3zmq9i_decoderD2Ev, ptr @_ZN3zmq9i_decoderD0Ev, ptr @__cxa_pure_virtual, ptr @__cxa_pure_virtual, ptr @__cxa_pure_virtual, ptr @__cxa_pure_virtual] }, comdat, align 8

; Function Attrs: mustprogress nounwind uwtable
define linkonce_odr void @_ZN3zmq9i_decoderD2Ev(ptr noundef nonnull align 8 dereferenceable(8) %0) unnamed_addr #6 comdat align 2 {
  %2 = alloca ptr, align 8
  store ptr %0, ptr %2, align 8, !tbaa !52
  ret void
}

; Function Attrs: inlinehint mustprogress nounwind uwtable
define linkonce_odr void @_ZN3zmq9i_decoderC2Ev(ptr noundef nonnull align 8 dereferenceable(8) %0) unnamed_addr #9 comdat align 2 {
  %2 = alloca ptr, align 8
  store ptr %0, ptr %2, align 8, !tbaa !52
  %3 = load ptr, ptr %2, align 8
  store ptr getelementptr inbounds inrange(-16, 48) ({ [8 x ptr] }, ptr @_ZTVN3zmq9i_decoderE, i32 0, i32 0, i32 2), ptr %3, align 8, !tbaa !12
  ret void
}

; Function Attrs: mustprogress nounwind uwtable
define linkonce_odr void @_ZN3zmq14decoder_base_tINS_12v2_decoder_tENS_31shared_message_memory_allocatorEE9next_stepEPvmMS1_FiPKhE(ptr noundef nonnull align 8 dereferenceable(88) %0, ptr noundef %1, i64 noundef %2, i64 %3, i64 %4) #6 comdat align 2 {
  %6 = alloca { i64, i64 }, align 8
  %7 = alloca ptr, align 8
  %8 = alloca ptr, align 8
  %9 = alloca i64, align 8
  %10 = alloca { i64, i64 }, align 8
  %11 = getelementptr inbounds nuw { i64, i64 }, ptr %6, i32 0, i32 0
  store i64 %3, ptr %11, align 8
  %12 = getelementptr inbounds nuw { i64, i64 }, ptr %6, i32 0, i32 1
  store i64 %4, ptr %12, align 8
  %13 = load { i64, i64 }, ptr %6, align 8, !tbaa !31
  store ptr %0, ptr %7, align 8, !tbaa !32
  store ptr %1, ptr %8, align 8, !tbaa !38
  store i64 %2, ptr %9, align 8, !tbaa !8
  store { i64, i64 } %13, ptr %10, align 8, !tbaa !31
  %14 = load ptr, ptr %7, align 8
  %15 = load ptr, ptr %8, align 8, !tbaa !38
  %16 = getelementptr inbounds nuw %"class.zmq::decoder_base_t", ptr %14, i32 0, i32 2
  store ptr %15, ptr %16, align 8, !tbaa !35
  %17 = load i64, ptr %9, align 8, !tbaa !8
  %18 = getelementptr inbounds nuw %"class.zmq::decoder_base_t", ptr %14, i32 0, i32 3
  store i64 %17, ptr %18, align 8, !tbaa !36
  %19 = load { i64, i64 }, ptr %10, align 8, !tbaa !31
  %20 = getelementptr inbounds nuw %"class.zmq::decoder_base_t", ptr %14, i32 0, i32 1
  store { i64, i64 } %19, ptr %20, align 8, !tbaa !34
  ret void
}

; Function Attrs: mustprogress uwtable
define linkonce_odr void @_ZN3zmq14decoder_base_tINS_12v2_decoder_tENS_31shared_message_memory_allocatorEEC2Em(ptr noundef nonnull align 8 dereferenceable(88) %0, i64 noundef %1) unnamed_addr #0 comdat align 2 personality ptr @__gxx_personality_v0 {
  %3 = alloca ptr, align 8
  %4 = alloca i64, align 8
  %5 = alloca ptr, align 8
  %6 = alloca i32, align 4
  store ptr %0, ptr %3, align 8, !tbaa !32
  store i64 %1, ptr %4, align 8, !tbaa !8
  %7 = load ptr, ptr %3, align 8
  call void @_ZN3zmq9i_decoderC2Ev(ptr noundef nonnull align 8 dereferenceable(8) %7) #12
  store ptr getelementptr inbounds inrange(-16, 48) ({ [8 x ptr] }, ptr @_ZTVN3zmq14decoder_base_tINS_12v2_decoder_tENS_31shared_message_memory_allocatorEEE, i32 0, i32 0, i32 2), ptr %7, align 8, !tbaa !12
  %8 = getelementptr inbounds nuw %"class.zmq::decoder_base_t", ptr %7, i32 0, i32 1
  store { i64, i64 } zeroinitializer, ptr %8, align 8, !tbaa !34
  %9 = getelementptr inbounds nuw %"class.zmq::decoder_base_t", ptr %7, i32 0, i32 2
  store ptr null, ptr %9, align 8, !tbaa !35
  %10 = getelementptr inbounds nuw %"class.zmq::decoder_base_t", ptr %7, i32 0, i32 3
  store i64 0, ptr %10, align 8, !tbaa !36
  %11 = getelementptr inbounds nuw %"class.zmq::decoder_base_t", ptr %7, i32 0, i32 4
  %12 = load i64, ptr %4, align 8, !tbaa !8
  invoke void @_ZN3zmq31shared_message_memory_allocatorC1Em(ptr noundef nonnull align 8 dereferenceable(40) %11, i64 noundef %12)
          to label %13 unwind label %18

13:                                               ; preds = %2
  %14 = getelementptr inbounds nuw %"class.zmq::decoder_base_t", ptr %7, i32 0, i32 4
  %15 = invoke noundef ptr @_ZN3zmq31shared_message_memory_allocator8allocateEv(ptr noundef nonnull align 8 dereferenceable(40) %14)
          to label %16 unwind label %22

16:                                               ; preds = %13
  %17 = getelementptr inbounds nuw %"class.zmq::decoder_base_t", ptr %7, i32 0, i32 5
  store ptr %15, ptr %17, align 8, !tbaa !37
  ret void

18:                                               ; preds = %2
  %19 = landingpad { ptr, i32 }
          cleanup
  %20 = extractvalue { ptr, i32 } %19, 0
  store ptr %20, ptr %5, align 8
  %21 = extractvalue { ptr, i32 } %19, 1
  store i32 %21, ptr %6, align 4
  br label %26

22:                                               ; preds = %13
  %23 = landingpad { ptr, i32 }
          cleanup
  %24 = extractvalue { ptr, i32 } %23, 0
  store ptr %24, ptr %5, align 8
  %25 = extractvalue { ptr, i32 } %23, 1
  store i32 %25, ptr %6, align 4
  call void @_ZN3zmq31shared_message_memory_allocatorD1Ev(ptr noundef nonnull align 8 dereferenceable(40) %11) #12
  br label %26

26:                                               ; preds = %22, %18
  call void @_ZN3zmq9i_decoderD2Ev(ptr noundef nonnull align 8 dereferenceable(8) %7) #12
  br label %27

27:                                               ; preds = %26
  %28 = load ptr, ptr %5, align 8
  %29 = load i32, ptr %6, align 4
  %30 = insertvalue { ptr, i32 } poison, ptr %28, 0
  %31 = insertvalue { ptr, i32 } %30, i32 %29, 1
  resume { ptr, i32 } %31
}

; Function Attrs: mustprogress uwtable
define void @_ZN3zmq12v2_decoder_tC2Emlb(ptr noundef nonnull align 8 dereferenceable(184) %0, i64 noundef %1, i64 noundef %2, i1 noundef zeroext %3) unnamed_addr #0 align 2 personality ptr @__gxx_personality_v0 {
  %5 = alloca ptr, align 8
  %6 = alloca i64, align 8
  %7 = alloca i64, align 8
  %8 = alloca i8, align 1
  %9 = alloca i32, align 4
  %10 = alloca ptr, align 8
  %11 = alloca i32, align 4
  %12 = alloca ptr, align 8
  %13 = alloca { i64, i64 }, align 8
  store ptr %0, ptr %5, align 8, !tbaa !3
  store i64 %1, ptr %6, align 8, !tbaa !8
  store i64 %2, ptr %7, align 8, !tbaa !8
  %14 = zext i1 %3 to i8
  store i8 %14, ptr %8, align 1, !tbaa !10
  %15 = load ptr, ptr %5, align 8
  %16 = load i64, ptr %6, align 8, !tbaa !8
  call void @_ZN3zmq14decoder_base_tINS_12v2_decoder_tENS_31shared_message_memory_allocatorEEC2Em(ptr noundef nonnull align 8 dereferenceable(88) %15, i64 noundef %16)
  store ptr getelementptr inbounds inrange(-16, 48) ({ [8 x ptr] }, ptr @_ZTVN3zmq12v2_decoder_tE, i32 0, i32 0, i32 2), ptr %15, align 8, !tbaa !12
  %17 = getelementptr inbounds nuw %"class.zmq::v2_decoder_t", ptr %15, i32 0, i32 2
  store i8 0, ptr %17, align 8, !tbaa !14
  %18 = getelementptr inbounds nuw %"class.zmq::v2_decoder_t", ptr %15, i32 0, i32 4
  %19 = load i8, ptr %8, align 1, !tbaa !10, !range !22, !noundef !23
  %20 = trunc i8 %19 to i1
  %21 = zext i1 %20 to i8
  store i8 %21, ptr %18, align 8, !tbaa !24
  %22 = getelementptr inbounds nuw %"class.zmq::v2_decoder_t", ptr %15, i32 0, i32 5
  %23 = load i64, ptr %7, align 8, !tbaa !8
  store i64 %23, ptr %22, align 8, !tbaa !25
  call void @llvm.lifetime.start.p0(i64 4, ptr %9) #12
  %24 = getelementptr inbounds nuw %"class.zmq::v2_decoder_t", ptr %15, i32 0, i32 3
  %25 = invoke noundef i32 @_ZN3zmq5msg_t4initEv(ptr noundef nonnull align 8 dereferenceable(64) %24)
          to label %26 unwind label %46

26:                                               ; preds = %4
  store i32 %25, ptr %9, align 4, !tbaa !26
  br label %27

27:                                               ; preds = %26
  %28 = load i32, ptr %9, align 4, !tbaa !26
  %29 = icmp eq i32 %28, 0
  %30 = xor i1 %29, true
  %31 = zext i1 %30 to i64
  %32 = call i64 @llvm.expect.i64(i64 %31, i64 0)
  %33 = icmp ne i64 %32, 0
  br i1 %33, label %34, label %54

34:                                               ; preds = %27
  call void @llvm.lifetime.start.p0(i64 8, ptr %12) #12
  %35 = call ptr @__errno_location() #13
  %36 = load i32, ptr %35, align 4, !tbaa !26
  %37 = call ptr @strerror(i32 noundef %36) #12
  store ptr %37, ptr %12, align 8, !tbaa !28
  %38 = load ptr, ptr @stderr, align 8, !tbaa !29
  %39 = load ptr, ptr %12, align 8, !tbaa !28
  %40 = call i32 (ptr, ptr, ...) @fprintf(ptr noundef %38, ptr noundef @.str, ptr noundef %39, ptr noundef @.str.1, i32 noundef 23) #12
  %41 = load ptr, ptr @stderr, align 8, !tbaa !29
  %42 = invoke i32 @fflush(ptr noundef %41)
          to label %43 unwind label %50

43:                                               ; preds = %34
  %44 = load ptr, ptr %12, align 8, !tbaa !28
  invoke void @_ZN3zmq9zmq_abortEPKc(ptr noundef %44)
          to label %45 unwind label %50

45:                                               ; preds = %43
  call void @llvm.lifetime.end.p0(i64 8, ptr %12) #12
  br label %54

46:                                               ; preds = %56, %4
  %47 = landingpad { ptr, i32 }
          cleanup
  %48 = extractvalue { ptr, i32 } %47, 0
  store ptr %48, ptr %10, align 8
  %49 = extractvalue { ptr, i32 } %47, 1
  store i32 %49, ptr %11, align 4
  br label %64

50:                                               ; preds = %43, %34
  %51 = landingpad { ptr, i32 }
          cleanup
  %52 = extractvalue { ptr, i32 } %51, 0
  store ptr %52, ptr %10, align 8
  %53 = extractvalue { ptr, i32 } %51, 1
  store i32 %53, ptr %11, align 4
  call void @llvm.lifetime.end.p0(i64 8, ptr %12) #12
  br label %64

54:                                               ; preds = %45, %27
  br label %55

55:                                               ; preds = %54
  br label %56

56:                                               ; preds = %55
  %57 = getelementptr inbounds nuw %"class.zmq::v2_decoder_t", ptr %15, i32 0, i32 1
  %58 = getelementptr inbounds [8 x i8], ptr %57, i64 0, i64 0
  store { i64, i64 } { i64 ptrtoint (ptr @_ZN3zmq12v2_decoder_t11flags_readyEPKh to i64), i64 0 }, ptr %13, align 8, !tbaa !31
  %59 = getelementptr inbounds nuw { i64, i64 }, ptr %13, i32 0, i32 0
  %60 = load i64, ptr %59, align 8
  %61 = getelementptr inbounds nuw { i64, i64 }, ptr %13, i32 0, i32 1
  %62 = load i64, ptr %61, align 8
  invoke void @_ZN3zmq14decoder_base_tINS_12v2_decoder_tENS_31shared_message_memory_allocatorEE9next_stepEPvmMS1_FiPKhE(ptr noundef nonnull align 8 dereferenceable(88) %15, ptr noundef %58, i64 noundef 1, i64 %60, i64 %62)
          to label %63 unwind label %46

63:                                               ; preds = %56
  call void @llvm.lifetime.end.p0(i64 4, ptr %9) #12
  ret void

64:                                               ; preds = %50, %46
  call void @llvm.lifetime.end.p0(i64 4, ptr %9) #12
  call void @_ZN3zmq14decoder_base_tINS_12v2_decoder_tENS_31shared_message_memory_allocatorEED2Ev(ptr noundef nonnull align 8 dereferenceable(88) %15) #12
  br label %65

65:                                               ; preds = %64
  %66 = load ptr, ptr %10, align 8
  %67 = load i32, ptr %11, align 4
  %68 = insertvalue { ptr, i32 } poison, ptr %66, 0
  %69 = insertvalue { ptr, i32 } %68, i32 %67, 1
  resume { ptr, i32 } %69
}