; Function Attrs: mustprogress uwtable
define void @_ZN3zmq12v2_decoder_tC2Emlb(ptr noundef nonnull align 8 dereferenceable(184) initializes((0, 40)) %0, i64 noundef %1, i64 noundef %2, i1 noundef zeroext %3) unnamed_addr #0 align 2 personality ptr @__gxx_personality_v0 {
  store ptr getelementptr inbounds nuw inrange(-16, 48) (i8, ptr @_ZTVN3zmq14decoder_base_tINS_12v2_decoder_tENS_31shared_message_memory_allocatorEEE, i64 16), ptr %0, align 8, !tbaa !3
  %5 = getelementptr inbounds nuw i8, ptr %0, i64 8
  %6 = getelementptr inbounds nuw i8, ptr %0, i64 40
  tail call void @llvm.memset.p0.i64(ptr noundef nonnull align 8 dereferenceable(32) %5, i8 0, i64 32, i1 false)
  tail call void @_ZN3zmq31shared_message_memory_allocatorC1Em(ptr noundef nonnull align 8 dereferenceable(40) %6, i64 noundef %1)
  %7 = invoke noundef ptr @_ZN3zmq31shared_message_memory_allocator8allocateEv(ptr noundef nonnull align 8 dereferenceable(40) %6)
          to label %_ZN3zmq14decoder_base_tINS_12v2_decoder_tENS_31shared_message_memory_allocatorEEC2Em.exit unwind label %8

common.resume:                                    ; preds = %34, %8
  %common.resume.op = phi { ptr, i32 } [ %9, %8 ], [ %.pn, %34 ]
  resume { ptr, i32 } %common.resume.op

8:                                                ; preds = %4
  %9 = landingpad { ptr, i32 }
          cleanup
  tail call void @_ZN3zmq31shared_message_memory_allocatorD1Ev(ptr noundef nonnull align 8 dereferenceable(40) %6) #15
  br label %common.resume

_ZN3zmq14decoder_base_tINS_12v2_decoder_tENS_31shared_message_memory_allocatorEEC2Em.exit: ; preds = %4
  %10 = zext i1 %3 to i8
  %11 = getelementptr inbounds nuw i8, ptr %0, i64 80
  store ptr %7, ptr %11, align 8, !tbaa !6
  store ptr getelementptr inbounds nuw inrange(-16, 48) (i8, ptr @_ZTVN3zmq12v2_decoder_tE, i64 16), ptr %0, align 8, !tbaa !3
  %12 = getelementptr inbounds nuw i8, ptr %0, i64 96
  store i8 0, ptr %12, align 8, !tbaa !15
  %13 = getelementptr inbounds nuw i8, ptr %0, i64 168
  store i8 %10, ptr %13, align 8, !tbaa !19
  %14 = getelementptr inbounds nuw i8, ptr %0, i64 176
  store i64 %2, ptr %14, align 8, !tbaa !20
  %15 = getelementptr inbounds nuw i8, ptr %0, i64 104
  %16 = invoke noundef i32 @_ZN3zmq5msg_t4initEv(ptr noundef nonnull align 8 dereferenceable(64) %15)
          to label %17 unwind label %26

17:                                               ; preds = %_ZN3zmq14decoder_base_tINS_12v2_decoder_tENS_31shared_message_memory_allocatorEEC2Em.exit
  %.not = icmp eq i32 %16, 0
  br i1 %.not, label %30, label %18, !prof !21

18:                                               ; preds = %17
  %19 = tail call ptr @__errno_location() #16
  %20 = load i32, ptr %19, align 4, !tbaa !22
  %21 = tail call ptr @strerror(i32 noundef %20) #15
  %22 = load ptr, ptr @stderr, align 8, !tbaa !24
  %23 = tail call i32 (ptr, ptr, ...) @fprintf(ptr noundef %22, ptr noundef nonnull @.str, ptr noundef %21, ptr noundef nonnull @.str.1, i32 noundef 23) #17
  %24 = load ptr, ptr @stderr, align 8, !tbaa !24
  %25 = tail call i32 @fflush(ptr noundef %24)
  invoke void @_ZN3zmq9zmq_abortEPKc(ptr noundef %21)
          to label %30 unwind label %28

26:                                               ; preds = %_ZN3zmq14decoder_base_tINS_12v2_decoder_tENS_31shared_message_memory_allocatorEEC2Em.exit
  %27 = landingpad { ptr, i32 }
          cleanup
  br label %34

28:                                               ; preds = %18
  %29 = landingpad { ptr, i32 }
          cleanup
  br label %34

30:                                               ; preds = %18, %17
  %31 = getelementptr inbounds nuw i8, ptr %0, i64 88
  %32 = getelementptr inbounds nuw i8, ptr %0, i64 24
  store ptr %31, ptr %32, align 8, !tbaa !26
  %33 = getelementptr inbounds nuw i8, ptr %0, i64 32
  store i64 1, ptr %33, align 8, !tbaa !27
  store i64 ptrtoint (ptr @_ZN3zmq12v2_decoder_t11flags_readyEPKh to i64), ptr %5, align 8, !tbaa !28
  %.repack8.i = getelementptr inbounds nuw i8, ptr %0, i64 16
  store i64 0, ptr %.repack8.i, align 8, !tbaa !28
  ret void

34:                                               ; preds = %28, %26
  %.pn = phi { ptr, i32 } [ %29, %28 ], [ %27, %26 ]
  tail call void @_ZN3zmq14decoder_base_tINS_12v2_decoder_tENS_31shared_message_memory_allocatorEED2Ev(ptr noundef nonnull align 8 dereferenceable(88) %0) #15
  br label %common.resume
}